; Function Attrs: mustprogress uwtable
define void @_ZN32pxrInternal_v0_24__pxrReserved__22HdDataSourceLocatorSet6insertEOS0_(ptr noundef nonnull align 8 dereferenceable(456) %0, ptr noundef nonnull align 8 dereferenceable(456) %1) local_unnamed_addr #0 align 2 {
  %3 = getelementptr inbounds nuw i8, ptr %0, i64 448
  %4 = load i32, ptr %3, align 8
  %5 = icmp eq i32 %4, 0
  br i1 %5, label %6, label %8

6:                                                ; preds = %2
  %.not.i = icmp eq ptr %0, %1
  br i1 %.not.i, label %_ZN32pxrInternal_v0_24__pxrReserved__13TfSmallVectorINS_19HdDataSourceLocatorELj8EEaSEOS2_.exit, label %7

7:                                                ; preds = %6
  tail call void @_ZN32pxrInternal_v0_24__pxrReserved__13TfSmallVectorINS_19HdDataSourceLocatorELj8EE4swapERS2_(ptr noundef nonnull align 8 dereferenceable(456) %0, ptr noundef nonnull align 8 dereferenceable(456) %1)
  br label %_ZN32pxrInternal_v0_24__pxrReserved__13TfSmallVectorINS_19HdDataSourceLocatorELj8EEaSEOS2_.exit

8:                                                ; preds = %2
  %9 = zext i32 %4 to i64
  %10 = add nuw nsw i64 %9, 5
  %11 = getelementptr inbounds nuw i8, ptr %1, i64 448
  %12 = load i32, ptr %11, align 8
  %13 = zext i32 %12 to i64
  %14 = icmp ult i64 %10, %13
  br i1 %14, label %15, label %16

15:                                               ; preds = %8
  tail call void @_ZN32pxrInternal_v0_24__pxrReserved__13TfSmallVectorINS_19HdDataSourceLocatorELj8EE4swapERS2_(ptr noundef nonnull align 8 dereferenceable(456) %0, ptr noundef nonnull align 8 dereferenceable(456) %1)
  br label %16

16:                                               ; preds = %15, %8
  tail call void @_ZN32pxrInternal_v0_24__pxrReserved__22HdDataSourceLocatorSet6insertERKS0_(ptr noundef nonnull align 8 dereferenceable(456) %0, ptr noundef nonnull align 8 dereferenceable(456) %1)
  br label %_ZN32pxrInternal_v0_24__pxrReserved__13TfSmallVectorINS_19HdDataSourceLocatorELj8EEaSEOS2_.exit

_ZN32pxrInternal_v0_24__pxrReserved__13TfSmallVectorINS_19HdDataSourceLocatorELj8EEaSEOS2_.exit: ; preds = %7, %6, %16
  ret void
}